; Function Attrs: mustprogress nounwind uwtable
define dso_local void @_ZN5clang13ASTDeclWriter20VisitOMPAllocateDeclEPNS_15OMPAllocateDeclE(ptr noundef nonnull align 8 dereferenceable(241) %0, ptr noundef %1) local_unnamed_addr #0 align 2 {
  %3 = getelementptr inbounds nuw i8, ptr %0, i64 16
  %4 = getelementptr inbounds nuw i8, ptr %1, i64 40
  %5 = load ptr, ptr %4, align 8
  tail call void @_ZN5clang15ASTRecordWriter16writeOMPChildrenEPNS_11OMPChildrenE(ptr noundef nonnull align 8 dereferenceable(216) %3, ptr noundef %5) #19
  tail call void @_ZN5clang13ASTDeclWriter9VisitDeclEPNS_4DeclE(ptr noundef nonnull align 8 dereferenceable(241) %0, ptr noundef %1)
  %6 = getelementptr inbounds nuw i8, ptr %0, i64 232
  store i32 127, ptr %6, align 8
  ret void
}